(dp1
S'cutoff'
p2
S'10'
p3
sS'laser'
p4
(lp5
(lp6
S'laser1'
p7
aS'1000+1'
p8
aS'0'
aS'[[10, 110*pi]]'
p9
aa(lp10
S'laser2'
p11
aS'900+1'
p12
aS'0'
aS'[[10, 110*pi]]'
p13
aasS'collapse'
p14
S''
sS'plot'
p15
S'atom1(fock_dm(N, 0)); atom1 0\natom1(fock_dm(N, 1)); atom1 100\natom1(fock_dm(N, 2)); atom1 1000\nlaser1(.2); laser'
p16
sS'interval'
p17
S'[0, 120*pi]'
p18
sS'measure'
p19
S'1000'
p20
sS'vibron'
p21
(lp22
sS'eta'
p23
(lp24
(lp25
asS'atom'
p26
(lp27
(lp28
S'atom1'
p29
aS'[0, 100, 1000]'
p30
aS'diag([1, 0, 0])'
p31
aasS'rabi'
p32
(lp33
(lp34
S'.1*sqrt(2)'
p35
aa(lp36
S'.1*sqrt(2)'
p37
aasS'hbar'
p38
S'1'
s.