(dp1
S'cutoff'
p2
S'5'
sS'laser'
p3
(lp4
(lp5
S'laser1'
p6
aS'110+1'
p7
aS'0'
aS'[[0, 100*pi]]'
p8
aa(lp9
S'laser2'
p10
aS'90-1'
p11
aS'0'
aS'[[0, 100*pi]]'
p12
aasS'collapse'
p13
S''
sS'plot'
p14
S'atom1(fock_dm(N, 0)); atom1 0\natom1(fock_dm(N, 1)); atom1 100\n\natom2(fock_dm(N, 0)); atom2 0\natom2(fock_dm(N, 1)); atom2 100\n\nvib1(fock_dm(N, 0)); vib1 0\nvib1(fock_dm(N, 1)); vib1 1'
p15
sS'interval'
p16
S'[0, 100*pi]'
p17
sS'measure'
p18
S'100'
p19
sS'vibron'
p20
(lp21
(lp22
S'vib1'
p23
aS'10'
p24
aS'diag([1, 0])'
p25
aasS'eta'
p26
(lp27
(lp28
S'.5'
p29
aa(lp30
S'.5'
p31
aasS'atom'
p32
(lp33
(lp34
S'atom1'
p35
aS'[0, 100]'
p36
aS'diag([1, 0])'
p37
aa(lp38
S'atom2'
p39
aS'[0, 100]'
p40
aS'diag([1, 0])'
p41
aasS'rabi'
p42
(lp43
(lp44
S'.2'
p45
aS'.2'
p46
aa(lp47
S'.2'
p48
aS'.2'
p49
aasS'hbar'
p50
S'1'
s.