(dp1
S'cutoff'
p2
S'5'
sS'laser'
p3
(lp4
(lp5
S'BSB_Ca'
p6
aS'110+1'
p7
aS'0'
aS'[[0, 100*pi]]'
p8
aa(lp9
S'RSB_Ca'
p10
aS'90-1'
p11
aS'0'
aS'[[0, 100*pi]]'
p12
aa(lp13
S'BSB_Be'
p14
aS'210+1'
p15
aS'0'
aS'[[0, 100*pi]]'
p16
aa(lp17
S'RSB_Be'
p18
aS'190-1'
p19
aS'0'
aS'[[0, 100*pi]]'
p20
aasS'collapse'
p21
S''
sS'plot'
p22
S'Ca(fock_dm(N, 0)); Ca 0\nCa(fock_dm(N, 1)); Ca 100\nCa(fock_dm(N, 2)); Ca 1000\n\nBe(fock_dm(N, 0)); Be 0\nBe(fock_dm(N, 1)); Be 200\nBe(fock_dm(N, 2)); Be 1000\n\nvib1(fock_dm(N, 0)); vib1 0\nvib1(fock_dm(N, 1)); vib1 1\nvib1(fock_dm(N, 2)); vib1 2'
p23
sS'interval'
p24
S'[0*pi, 100*pi]'
p25
sS'measure'
p26
S'1000'
p27
sS'vibron'
p28
(lp29
(lp30
S'vib1'
p31
aS'10'
p32
aS'diag([0, 1, 0])'
p33
aasS'eta'
p34
(lp35
(lp36
S'.2'
p37
aa(lp38
S'.2'
p39
aasS'atom'
p40
(lp41
(lp42
S'Ca'
p43
aS'[0, 100, 1000]'
p44
aS'diag([0, 1,  0])'
p45
aa(lp46
S'Be'
p47
aS'[0, 200, 1000]'
p48
aS'diag([1, 0, 0])'
p49
aasS'rabi'
p50
(lp51
(lp52
S'.5'
p53
aS'.5'
p54
aa(lp55
S'.5'
p56
aS'.5'
p57
aa(lp58
S'.5'
p59
aS'.5'
p60
aa(lp61
S'.5'
p62
aS'.5'
p63
aasS'hbar'
p64
S'1'
s.