(dp0
S'cutoff'
p1
V5
p2
sS'laser'
p3
(lp4
(lp5
Vlaser1
p6
aV100
p7
aV0
p8
aV[[0, sqrt(2)*pi]]
p9
aasS'interval'
p10
V[0, 2*pi]
p11
sS'measure'
p12
V100
p13
sS'vibron'
p14
(lp15
(lp16
Vvib1
p17
aV10
p18
aVdiag([1, 0])
p19
aasS'eta'
p20
(lp21
(lp22
V0
p23
aasS'atom'
p24
(lp25
(lp26
Vatom1
p27
aV[0, 100, 200]
p28
aVdiag([1, 0, 0])
p29
aasS'rabi'
p30
(lp31
(lp32
V1
p33
aas.