(dp1
S'cutoff'
p2
S'5'
sS'laser'
p3
(lp4
(lp5
S'laser1'
p6
aS'100'
p7
aS'0'
aS'[[0, sqrt(2)*pi]]'
p8
aasS'plot'
p9
S'atom1(fock_dm(N, 0)); atom1 0\natom1(fock_dm(N, 1)); atom1 100\natom1(fock_dm(N, 2)); atom1 200\n\nvib1(fock_dm(N, 0)); vib1 0\nvib1(fock_dm(N, 1)); vib1 1\n\nfidelity(atom1(fock_dm(N, 1)), state); FID'
p10
sS'interval'
p11
S'[0, 2*pi]'
p12
sS'measure'
p13
S'100'
p14
sS'vibron'
p15
(lp16
(lp17
S'vib1'
p18
aS'10'
p19
aS'diag([1, 0])'
p20
aasS'eta'
p21
(lp22
(lp23
S'0'
aasS'atom'
p24
(lp25
(lp26
S'atom1'
p27
aS'[0, 100, 200]'
p28
aS'diag([1, 0, 0])'
p29
aasS'rabi'
p30
(lp31
(lp32
S'1'
aas.