(dp1
S'cutoff'
p2
S'5'
sS'laser'
p3
(lp4
(lp5
S'laser1'
p6
aS'100'
p7
aS'0'
aS'[[0, sqrt(2)*pi]]'
p8
aasS'collapse'
p9
S'0.5*tensor(atom1(destroy(N)))'
p10
sS'plot'
p11
S'atom1(fock_dm(N, 0)); atom1 A\natom1(fock_dm(N, 1)); atom1 B\natom1(fock_dm(N, 2)); atom1 C\natom1(fock_dm(N, 2) + fock_dm(N, 1)); atom1 B + C'
p12
sS'interval'
p13
S'[0, 4*pi]'
p14
sS'measure'
p15
S'100'
p16
sS'vibron'
p17
(lp18
(lp19
S'vib1'
p20
aS'10'
p21
aS'diag([1, 0])'
p22
aasS'eta'
p23
(lp24
(lp25
S'0'
aasS'atom'
p26
(lp27
(lp28
S'atom1'
p29
aS'[0, 100, 200]'
p30
aS'diag([1, 0, 0])'
p31
aasS'rabi'
p32
(lp33
(lp34
S'1'
aasS'hbar'
p35
S'1'
s.