(dp1
S'cutoff'
p2
S'5'
sS'laser'
p3
(lp4
(lp5
S'BSB_Ca'
p6
aS'110+1'
p7
aS'0'
aS'[[0, 100*pi]]'
p8
aa(lp9
S'RSB_Ca'
p10
aS'90-1'
p11
aS'0'
aS'[[0, 100*pi]]'
p12
aa(lp13
S'BSB_Be'
p14
aS'210+1'
p15
aS'0'
aS'[[0, 100*pi]]'
p16
aa(lp17
S'RSB_Be'
p18
aS'190-1'
p19
aS'0'
aS'[[0, 100*pi]]'
p20
aasS'collapse'
p21
S'atom1(destroy(N))'
p22
sS'plot'
p23
S'Ca(fock_dm(N, 0)); Ca 0\nCa(fock_dm(N, 1)); Ca 100\nCa(fock_dm(N, 2)); Ca 1000\n\nBe(fock_dm(N, 0)); Be 0\nBe(fock_dm(N, 1)); Be 200\nBe(fock_dm(N, 2)); Be 1000\n\nvib1(fock_dm(N, 0)); vib1 0\nvib1(fock_dm(N, 1)); vib1 1\nvib1(fock_dm(N, 2)); vib1 2'
p24
sS'interval'
p25
S'[0*pi, 100*pi]'
p26
sS'measure'
p27
S'1000'
p28
sS'vibron'
p29
(lp30
(lp31
S'vib1'
p32
aS'10'
p33
aS'diag([0, 1, 0])'
p34
aasS'eta'
p35
(lp36
(lp37
S'.2'
p38
aa(lp39
S'.2'
p40
aasS'atom'
p41
(lp42
(lp43
S'Ca'
p44
aS'[0, 100, 1000]'
p45
aS'diag([0, 1,  0])'
p46
aa(lp47
S'Be'
p48
aS'[0, 200, 1000]'
p49
aS'diag([1, 0, 0])'
p50
aasS'rabi'
p51
(lp52
(lp53
S'.5'
p54
aS'.5'
p55
aa(lp56
S'.5'
p57
aS'.5'
p58
aa(lp59
S'.5'
p60
aS'.5'
p61
aa(lp62
S'.5'
p63
aS'.5'
p64
aasS'hbar'
p65
S'1'
s.