(dp0
S'cutoff'
p1
V5
p2
sS'laser'
p3
(lp4
(lp5
VBSB Ca
p6
aV110+1
p7
aV0
p8
aV[[0, 100*pi]]
p9
aa(lp10
VRSB Ca
p11
aV90-1
p12
aV0
p13
aV[[0, 100*pi]]
p14
aa(lp15
VBSB Be
p16
aV210+1
p17
aV0
p18
aV[[0, 100*pi]]
p19
aa(lp20
VRSB Be
p21
aV190-1
p22
aV0
p23
aV[[0, 100*pi]]
p24
aasS'interval'
p25
V[0*pi, 100*pi]
p26
sS'measure'
p27
V1000
p28
sS'vibron'
p29
(lp30
(lp31
Vvib1
p32
aV10
p33
aVdiag([0, 1, 0])
p34
aasS'eta'
p35
(lp36
(lp37
V.2
p38
aa(lp39
V.2
p40
aasS'atom'
p41
(lp42
(lp43
VCa
p44
aV[0, 100, 1000]
p45
aVdiag([0, 0, 1])
p46
aa(lp47
VBe
p48
aV[0, 200, 1000]
p49
aVdiag([1, 0, 0])
p50
aasS'rabi'
p51
(lp52
(lp53
V.5
p54
aV.5
p55
aa(lp56
V.5
p57
aV.5
p58
aa(lp59
V.5
p60
aV.5
p61
aa(lp62
V.5
p63
aV.5
p64
aas.