(dp1
S'cutoff'
p2
S'5'
sS'laser'
p3
(lp4
(lp5
S'laser1'
p6
aS'110+1'
p7
aS'0'
aS'[[0, 100*pi]]'
p8
aa(lp9
S'laser2'
p10
aS'90-1'
p11
aS'0'
aS'[[0, 100*pi]]'
p12
aasS'collapse'
p13
S'atom1(destroy(N))'
p14
sS'plot'
p15
S'atom1(fock_dm(N, 0)); atom1 0\natom1(fock_dm(N, 1)); atom1 100\n\natom2(fock_dm(N, 0)); atom2 0\natom2(fock_dm(N, 1)); atom2 100\n\nvib1(fock_dm(N, 0)); vib1 0\nvib1(fock_dm(N, 1)); vib1 1'
p16
sS'interval'
p17
S'[0, 100*pi]'
p18
sS'measure'
p19
S'100'
p20
sS'vibron'
p21
(lp22
(lp23
S'vib1'
p24
aS'10'
p25
aS'diag([1, 0])'
p26
aasS'eta'
p27
(lp28
(lp29
S'.5'
p30
aa(lp31
S'.5'
p32
aasS'atom'
p33
(lp34
(lp35
S'atom1'
p36
aS'[0, 100]'
p37
aS'diag([1, 0])'
p38
aa(lp39
S'atom2'
p40
aS'[0, 100]'
p41
aS'diag([1, 0])'
p42
aasS'rabi'
p43
(lp44
(lp45
S'.2'
p46
aS'.2'
p47
aa(lp48
S'.2'
p49
aS'.2'
p50
aasS'hbar'
p51
S'1'
s.