(dp1
S'cutoff'
p2
S'5'
sS'laser'
p3
(lp4
(lp5
S'BSB_Ca'
p6
aS'110+1'
p7
aS'0'
aS'[[0, 100*pi]]'
p8
aa(lp9
S'RSB_Ca'
p10
aS'90-1'
p11
aS'0'
aS'[[0, 100*pi]]'
p12
aa(lp13
S'BSB_Be'
p14
aS'210+1'
p15
aS'0'
aS'[[0, 100*pi]]'
p16
aa(lp17
S'RSB_Be'
p18
aS'190-1'
p19
aS'0'
aS'[[0, 100*pi]]'
p20
aasS'plot'
p21
S'Ca(fock_dm(N, 0)); Ca 0\nCa(fock_dm(N, 1)); Ca 100\nCa(fock_dm(N, 2)); Ca 1000\n\nBe(fock_dm(N, 0)); Be 0\nBe(fock_dm(N, 1)); Be 200\nBe(fock_dm(N, 2)); Be 1000\n\nvib1(fock_dm(N, 0)); vib1 0\nvib1(fock_dm(N, 1)); vib1 1\nvib1(fock_dm(N, 2)); vib1 2'
p22
sS'interval'
p23
S'[0*pi, 100*pi]'
p24
sS'measure'
p25
S'1000'
p26
sS'vibron'
p27
(lp28
(lp29
S'vib1'
p30
aS'10'
p31
aS'diag([0, 1, 0])'
p32
aasS'eta'
p33
(lp34
(lp35
S'.2'
p36
aa(lp37
S'.2'
p38
aasS'atom'
p39
(lp40
(lp41
S'Ca'
p42
aS'[0, 100, 1000]'
p43
aS'diag([0, 1,  0])'
p44
aa(lp45
S'Be'
p46
aS'[0, 200, 1000]'
p47
aS'diag([1, 0, 0])'
p48
aasS'rabi'
p49
(lp50
(lp51
S'.5'
p52
aS'.5'
p53
aa(lp54
S'.5'
p55
aS'.5'
p56
aa(lp57
S'.5'
p58
aS'.5'
p59
aa(lp60
S'.5'
p61
aS'.5'
p62
aas.