(dp1
S'cutoff'
p2
S'5'
sS'laser'
p3
(lp4
(lp5
S'laser1'
p6
aS'110+1'
p7
aS'0'
aS'[[0, 100*pi]]'
p8
aa(lp9
S'laser2'
p10
aS'90-1'
p11
aS'0'
aS'[[0, 100*pi]]'
p12
aasS'plot'
p13
S'atom1(fock_dm(N, 0)); atom1 0\natom1(fock_dm(N, 1)); atom1 100\n\natom2(fock_dm(N, 0)); atom2 0\natom2(fock_dm(N, 1)); atom2 100\n\nvib1(fock_dm(N, 0)); vib1 0\nvib1(fock_dm(N, 1)); vib1 1'
p14
sS'interval'
p15
S'[0, 100*pi]'
p16
sS'measure'
p17
S'100'
p18
sS'vibron'
p19
(lp20
(lp21
S'vib1'
p22
aS'10'
p23
aS'diag([1, 0])'
p24
aasS'eta'
p25
(lp26
(lp27
S'.5'
p28
aa(lp29
S'.5'
p30
aasS'atom'
p31
(lp32
(lp33
S'atom1'
p34
aS'[0, 100]'
p35
aS'diag([1, 0])'
p36
aa(lp37
S'atom2'
p38
aS'[0, 100]'
p39
aS'diag([1, 0])'
p40
aasS'rabi'
p41
(lp42
(lp43
S'.2'
p44
aS'.2'
p45
aa(lp46
S'.2'
p47
aS'.2'
p48
aas.