(dp0
S'cutoff'
p1
V5
p2
sS'laser'
p3
(lp4
(lp5
Vlaser1
p6
aV110+1
p7
aV0
p8
aV[[0, 100*pi]]
p9
aa(lp10
Vlaser2
p11
aV90-1
p12
aV0
p13
aV[[0, 100*pi]]
p14
aasS'interval'
p15
V[0, 100*pi]
p16
sS'measure'
p17
V100
p18
sS'vibron'
p19
(lp20
(lp21
Vvib1
p22
aV10
p23
aVdiag([1, 0])
p24
aasS'eta'
p25
(lp26
(lp27
V.5
p28
aa(lp29
V.5
p30
aasS'atom'
p31
(lp32
(lp33
Vatom1
p34
aV[0, 100]
p35
aVdiag([1, 0])
p36
aa(lp37
Vatom2
p38
aV[0, 100]
p39
aVdiag([1, 0])
p40
aasS'rabi'
p41
(lp42
(lp43
V.2
p44
aV.2
p45
aa(lp46
V.2
p47
aV.2
p48
aas.