(dp1
S'cutoff'
p2
S'10'
p3
sS'laser'
p4
(lp5
(lp6
S'laser1'
p7
aS'1000+1'
p8
aS'0'
aS'[[10, 110*pi]]'
p9
aa(lp10
S'laser2'
p11
aS'900+1'
p12
aS'0'
aS'[[10, 110*pi]]'
p13
aasS'plot'
p14
S'atom1(fock_dm(N, 0)); atom1 0\natom1(fock_dm(N, 1)); atom1 100\natom1(fock_dm(N, 2)); atom1 1000\nlaser1(.2); laser'
p15
sS'interval'
p16
S'[0, 120*pi]'
p17
sS'measure'
p18
S'1000'
p19
sS'vibron'
p20
(lp21
sS'eta'
p22
(lp23
(lp24
asS'atom'
p25
(lp26
(lp27
S'atom1'
p28
aS'[0, 100, 1000]'
p29
aS'diag([1, 0, 0])'
p30
aasS'rabi'
p31
(lp32
(lp33
S'.1*sqrt(2)'
p34
aa(lp35
S'.1*sqrt(2)'
p36
aas.