(dp1
S'cutoff'
p2
S'10'
p3
sS'laser'
p4
(lp5
(lp6
S'laser1'
p7
aS'1000+1'
p8
aS'0'
aS'[[10, 110*pi]]'
p9
aa(lp10
S'laser2'
p11
aS'900+1'
p12
aS'0'
aS'[[10, 110*pi]]'
p13
aasS'collapse'
p14
S'atom1(destroy(N))'
p15
sS'plot'
p16
S'atom1(fock_dm(N, 0)); atom1 0\natom1(fock_dm(N, 1)); atom1 100\natom1(fock_dm(N, 2)); atom1 1000\nlaser1(.2); laser'
p17
sS'interval'
p18
S'[0, 120*pi]'
p19
sS'measure'
p20
S'1000'
p21
sS'vibron'
p22
(lp23
sS'eta'
p24
(lp25
(lp26
asS'atom'
p27
(lp28
(lp29
S'atom1'
p30
aS'[0, 100, 1000]'
p31
aS'diag([1, 0, 0])'
p32
aasS'rabi'
p33
(lp34
(lp35
S'.1*sqrt(2)'
p36
aa(lp37
S'.1*sqrt(2)'
p38
aasS'hbar'
p39
S'1'
s.