(dp1
S'cutoff'
p2
S'5'
sS'laser'
p3
(lp4
(lp5
S'laser1'
p6
aS'90'
p7
aS'0'
aS'[[0, pi], [2*pi, (2+1/sqrt(2))*pi], [4*pi, (4+1/sqrt(3))*pi]]'
p8
aa(lp9
S'laser2'
p10
aS'100'
p11
aS'0'
aS'[[pi, 2*pi], [3*pi, 4*pi]]'
p12
aasS'plot'
p13
S'atom1(fock_dm(N, 0)); atom1 0\natom1(fock_dm(N, 1)); atom1 100\nlaser2(.2); carrier\n\nvib1(fock_dm(N, 0)); vib1 0\nvib1(fock_dm(N, 1)); vib1 1\nvib1(fock_dm(N, 2)); vib1 2\nvib1(fock_dm(N, 3)); vib1 3\nlaser1(.2); RSB-laser'
p14
sS'interval'
p15
S'[0, 6*pi]'
p16
sS'measure'
p17
S'500'
p18
sS'vibron'
p19
(lp20
(lp21
S'vib1'
p22
aS'10'
p23
aS'diag([1, 0, 0, 0])'
p24
aasS'eta'
p25
(lp26
(lp27
S'1'
aasS'atom'
p28
(lp29
(lp30
S'atom1'
p31
aS'[0, 100]'
p32
aS'diag([0, 1])'
p33
aasS'rabi'
p34
(lp35
(lp36
S'1'
aa(lp37
S'1'
aas.