(dp1
S'cutoff'
p2
S'5'
sS'laser'
p3
(lp4
(lp5
S'laser1'
p6
aS'90'
p7
aS'0'
aS'[[0, pi], [2*pi, (2+1/sqrt(2))*pi], [4*pi, (4+1/sqrt(3))*pi]]'
p8
aa(lp9
S'laser2'
p10
aS'100'
p11
aS'0'
aS'[[pi, 2*pi], [3*pi, 4*pi]]'
p12
aasS'collapse'
p13
S'atom1(destroy(N))'
p14
sS'plot'
p15
S'atom1(fock_dm(N, 0)); atom1 0\natom1(fock_dm(N, 1)); atom1 100\nlaser2(.2); carrier\n\nvib1(fock_dm(N, 0)); vib1 0\nvib1(fock_dm(N, 1)); vib1 1\nvib1(fock_dm(N, 2)); vib1 2\nvib1(fock_dm(N, 3)); vib1 3\nlaser1(.2); RSB-laser'
p16
sS'interval'
p17
S'[0, 6*pi]'
p18
sS'measure'
p19
S'500'
p20
sS'vibron'
p21
(lp22
(lp23
S'vib1'
p24
aS'10'
p25
aS'diag([1, 0, 0, 0])'
p26
aasS'eta'
p27
(lp28
(lp29
S'1'
aasS'atom'
p30
(lp31
(lp32
S'atom1'
p33
aS'[0, 100]'
p34
aS'diag([0, 1])'
p35
aasS'rabi'
p36
(lp37
(lp38
S'1'
aa(lp39
S'1'
aasS'hbar'
p40
S'1'
s.