(dp0
S'cutoff'
p1
V5
p2
sS'laser'
p3
(lp4
(lp5
Vlaser1
p6
aV310+1
p7
aV0
p8
aV[[0, 100*pi], [102*pi, 202*pi]]
p9
aa(lp10
Vlaser2
p11
aV290-1
p12
aV0
p13
aV[[0, 100*pi], [102*pi, 202*pi]]
p14
aa(lp15
Vlaser3
p16
aV620+1
p17
aV0
p18
aV[[0, 100*pi], [102*pi, 202*pi]]
p19
aa(lp20
Vlaser4
p21
aV580-1
p22
aV0
p23
aV[[0, 100*pi], [102*pi, 202*pi]]
p24
aa(lp25
Vlaser5
p26
aV90
p27
aV0
p28
aV[[100*pi, (100+1/sqrt(2))*pi]]
p29
aa(lp30
Vlaser6
p31
aV100
p32
aV0
p33
aV[[101*pi, 102*pi]]
p34
aasS'interval'
p35
V[0*pi, 202*pi]
p36
sS'measure'
p37
V1000
p38
sS'vibron'
p39
(lp40
(lp41
Vvib1
p42
aV10
p43
aVdiag([0, 1, 0])
p44
aa(lp45
Vvib2
p46
aV20
p47
aVdiag([0, 1, 0])
p48
aasS'eta'
p49
(lp50
(lp51
V.2
p52
aV.2
p53
aa(lp54
V.2
p55
aV.2
p56
aasS'atom'
p57
(lp58
(lp59
Vatom1
p60
aV[0, 100, 300, 700]
p61
aVdiag([1, 0, 0, 0])
p62
aa(lp63
Vatom2
p64
aV[0, 100, 300, 700]
p65
aVdiag([1, 0, 0, 0])
p66
aasS'rabi'
p67
(lp68
(lp69
V.5
p70
aV.5
p71
aa(lp72
V.5
p73
aV.5
p74
aa(lp75
V.5
p76
aV.5
p77
aa(lp78
V.5
p79
aV.5
p80
aa(lp81
V0
p82
aV5
p83
aa(lp84
V1
p85
aV0
p86
aas.