(dp1
S'cutoff'
p2
S'5'
sS'laser'
p3
(lp4
(lp5
S'laser1'
p6
aS'310+1'
p7
aS'0'
aS'[[0, 100*pi], [102*pi, 202*pi]]'
p8
aa(lp9
S'laser2'
p10
aS'290-1'
p11
aS'0'
aS'[[0, 100*pi], [102*pi, 202*pi]]'
p12
aa(lp13
S'laser3'
p14
aS'620+1'
p15
aS'0'
aS'[[0, 100*pi], [102*pi, 202*pi]]'
p16
aa(lp17
S'laser4'
p18
aS'580-1'
p19
aS'0'
aS'[[0, 100*pi], [102*pi, 202*pi]]'
p20
aa(lp21
S'laser5'
p22
aS'90'
p23
aS'0'
aS'[[100*pi, (100+1/sqrt(2))*pi]]'
p24
aa(lp25
S'laser6'
p26
aS'100'
p27
aS'0'
aS'[[101*pi, 102*pi]]'
p28
aasS'collapse'
p29
S'atom1(destroy(N))'
p30
sS'plot'
p31
S'atom1(fock_dm(N, 0)); atom1 0\natom1(fock_dm(N, 1)); atom1 100\natom1(fock_dm(N, 2)); atom1 300\natom1(fock_dm(N, 3)); atom1 700\n\natom2(fock_dm(N, 0)); atom2 0\natom2(fock_dm(N, 1)); atom2 100\natom2(fock_dm(N, 2)); atom2 300\natom2(fock_dm(N, 3)); atom2 700\n\nvib1(fock_dm(N, 0)); vib1 0\nvib1(fock_dm(N, 1)); vib1 1\nvib1(fock_dm(N, 2)); vib1 2\n\nvib2(fock_dm(N, 0)); vib2 0\nvib2(fock_dm(N, 1)); vib2 1\nvib2(fock_dm(N, 2)); vib2 2'
p32
sS'interval'
p33
S'[0*pi, 202*pi]'
p34
sS'measure'
p35
S'1000'
p36
sS'vibron'
p37
(lp38
(lp39
S'vib1'
p40
aS'10'
p41
aS'diag([0, 1, 0])'
p42
aa(lp43
S'vib2'
p44
aS'20'
p45
aS'diag([0, 1, 0])'
p46
aasS'eta'
p47
(lp48
(lp49
S'.2'
p50
aS'.2'
p51
aa(lp52
S'.2'
p53
aS'.2'
p54
aasS'atom'
p55
(lp56
(lp57
S'atom1'
p58
aS'[0, 100, 300, 700]'
p59
aS'diag([1, 0, 0, 0])'
p60
aa(lp61
S'atom2'
p62
aS'[0, 100, 300, 700]'
p63
aS'diag([1, 0, 0, 0])'
p64
aasS'rabi'
p65
(lp66
(lp67
S'.5'
p68
aS'.5'
p69
aa(lp70
S'.5'
p71
aS'.5'
p72
aa(lp73
S'.5'
p74
aS'.5'
p75
aa(lp76
S'.5'
p77
aS'.5'
p78
aa(lp79
S'0'
aS'5'
aa(lp80
S'1'
aS'0'
aasS'hbar'
p81
S'1'
s.