(dp1
S'cutoff'
p2
S'5'
sS'laser'
p3
(lp4
(lp5
S'laser1'
p6
aS'310+1'
p7
aS'0'
aS'[[0, 100*pi], [102*pi, 202*pi]]'
p8
aa(lp9
S'laser2'
p10
aS'290-1'
p11
aS'0'
aS'[[0, 100*pi], [102*pi, 202*pi]]'
p12
aa(lp13
S'laser3'
p14
aS'620+1'
p15
aS'0'
aS'[[0, 100*pi], [102*pi, 202*pi]]'
p16
aa(lp17
S'laser4'
p18
aS'580-1'
p19
aS'0'
aS'[[0, 100*pi], [102*pi, 202*pi]]'
p20
aa(lp21
S'laser5'
p22
aS'90'
p23
aS'0'
aS'[[100*pi, (100+1/sqrt(2))*pi]]'
p24
aa(lp25
S'laser6'
p26
aS'100'
p27
aS'0'
aS'[[101*pi, 102*pi]]'
p28
aasS'plot'
p29
S'atom1(fock_dm(N, 0)); atom1 0\natom1(fock_dm(N, 1)); atom1 100\natom1(fock_dm(N, 2)); atom1 300\natom1(fock_dm(N, 3)); atom1 700\n\natom2(fock_dm(N, 0)); atom2 0\natom2(fock_dm(N, 1)); atom2 100\natom2(fock_dm(N, 2)); atom2 300\natom2(fock_dm(N, 3)); atom2 700\n\nvib1(fock_dm(N, 0)); vib1 0\nvib1(fock_dm(N, 1)); vib1 1\nvib1(fock_dm(N, 2)); vib1 2\n\nvib2(fock_dm(N, 0)); vib2 0\nvib2(fock_dm(N, 1)); vib2 1\nvib2(fock_dm(N, 2)); vib2 2'
p30
sS'interval'
p31
S'[0*pi, 202*pi]'
p32
sS'measure'
p33
S'1000'
p34
sS'vibron'
p35
(lp36
(lp37
S'vib1'
p38
aS'10'
p39
aS'diag([0, 1, 0])'
p40
aa(lp41
S'vib2'
p42
aS'20'
p43
aS'diag([0, 1, 0])'
p44
aasS'eta'
p45
(lp46
(lp47
S'.2'
p48
aS'.2'
p49
aa(lp50
S'.2'
p51
aS'.2'
p52
aasS'atom'
p53
(lp54
(lp55
S'atom1'
p56
aS'[0, 100, 300, 700]'
p57
aS'diag([1, 0, 0, 0])'
p58
aa(lp59
S'atom2'
p60
aS'[0, 100, 300, 700]'
p61
aS'diag([1, 0, 0, 0])'
p62
aasS'rabi'
p63
(lp64
(lp65
S'.5'
p66
aS'.5'
p67
aa(lp68
S'.5'
p69
aS'.5'
p70
aa(lp71
S'.5'
p72
aS'.5'
p73
aa(lp74
S'.5'
p75
aS'.5'
p76
aa(lp77
S'0'
aS'5'
aa(lp78
S'1'
aS'0'
aas.